CCS PCH C Compiler, Version 4.140, 22098               09-out-14 17:32

               Filename:   D:\Projetos\CCP\ccp.lst

               ROM used:   168 bytes (1%)
                           Largest free fragment is 32600
               RAM used:   6 (0%) at main() level
                           6 (0%) worst case
               Stack:     0 locations

*
0000:  GOTO   0004
.................... #include<18F252.h> 
.................... //////// Standard Header file for the PIC18F252 device //////////////// 
.................... #device PIC18F252 
.................... #list 
....................  
.................... #DEVICE ADC=10 
....................  
.................... #FUSES HS 
....................  
.................... #use delay(clock=15MHz) 
.................... #use rs232(xmit=PIN_C6, baud=9600) 
....................  
.................... long leitura; 
....................  
.................... #zero_ram 
.................... int main(void) { 
0004:  CLRF   FF8
0006:  BCF    FD0.7
0008:  MOVLW  FE
000A:  MOVWF  00
000C:  MOVLW  06
000E:  MOVWF  01
0010:  MOVLW  02
0012:  MOVWF  FE9
0014:  MOVLW  00
0016:  MOVWF  FEA
0018:  CLRF   FEE
001A:  DECFSZ 00,F
001C:  BRA    0018
001E:  DECFSZ 01,F
0020:  BRA    0018
0022:  CLRF   FEA
0024:  CLRF   FE9
0026:  BCF    F94.6
0028:  BSF    F8B.6
002A:  BSF    FC1.0
002C:  BSF    FC1.1
002E:  BSF    FC1.2
0030:  BCF    FC1.3
....................  
.................... 	setup_timer_2(T2_DIV_BY_1, 255, 1); 
0032:  MOVLW  00
0034:  IORLW  04
0036:  MOVWF  FCA
0038:  MOVLW  FF
003A:  MOVWF  FCB
....................  
.................... 	setup_ccp1(CCP_PWM); 
003C:  BCF    F94.2
003E:  BCF    F8B.2
0040:  MOVLW  0C
0042:  MOVWF  FBD
....................  
.................... 	setup_adc_ports(AN0); 
0044:  BCF    FC1.0
0046:  BSF    FC1.1
0048:  BSF    FC1.2
004A:  BSF    FC1.3
.................... 	setup_adc(ADC_CLOCK_INTERNAL); 
004C:  BCF    FC1.6
004E:  BSF    FC2.6
0050:  BSF    FC2.7
0052:  BSF    FC1.7
0054:  BSF    FC2.0
.................... 	set_adc_channel(0); 
0056:  MOVLW  00
0058:  MOVWF  01
005A:  MOVF   FC2,W
005C:  ANDLW  C7
005E:  IORWF  01,W
0060:  MOVWF  FC2
.................... 	delay_us(100); 
0062:  MOVLW  7C
0064:  MOVWF  00
0066:  DECFSZ 00,F
0068:  BRA    0066
006A:  BRA    006C
....................  
.................... 	while (TRUE) { 
.................... 		leitura = read_adc(); 
006C:  BSF    FC2.2
006E:  BTFSC  FC2.2
0070:  BRA    006E
0072:  MOVFF  FC3,04
0076:  MOVFF  FC4,05
.................... 		set_pwm1_duty(leitura); 
007A:  MOVFF  05,02
007E:  MOVFF  04,01
0082:  RRCF   02,F
0084:  RRCF   01,F
0086:  RRCF   02,F
0088:  RRCF   01,F
008A:  RRCF   02,F
008C:  MOVFF  01,FBE
0090:  RRCF   02,F
0092:  RRCF   02,W
0094:  ANDLW  30
0096:  MOVWF  00
0098:  MOVF   FBD,W
009A:  ANDLW  CF
009C:  IORWF  00,W
009E:  MOVWF  FBD
.................... 	} 
00A0:  BRA    006C
.................... 	return 0; 
00A2:  MOVLW  00
00A4:  MOVWF  01
.................... } 
....................  
00A6:  SLEEP 

Configuration Fuses:
   Word  1: 2200   HS NOOSCSEN
   Word  2: 0E0E   PUT BROWNOUT BORV20 NOWDT WDT128
   Word  3: 0100   CCP2C1
   Word  4: 0081   STVREN NOLVP NODEBUG
   Word  5: C00F   NOPROTECT NOCPB NOCPD
   Word  6: E00F   NOWRT NOWRTC NOWRTB NOWRTD
   Word  7: 400F   NOEBTR NOEBTRB
